target datalayout = "e-m:e-p270:32:32-p271:32:32-p272:64:64-i64:64-i128:128-f80:128-n8:16:32:64-S128"
target triple = "x86_64-unknown-linux-gnu"

%struct.ecc_key = type { i32, i32, i32, i32, ptr, ptr, %struct.ecc_point, [1 x %struct.sp_int], ptr }
%struct.ecc_point = type { [1 x %struct.sp_int], [1 x %struct.sp_int], [1 x %struct.sp_int] }
%struct.sp_int = type { i32, i32, [129 x i64] }

; Function Attrs: nounwind uwtable
define i32 @wc_ecc_set_rng(ptr noundef %key, ptr noundef %rng) #0 {
entry:
  %key.addr = alloca ptr, align 8
  %rng.addr = alloca ptr, align 8
  %err = alloca i32, align 4
  store ptr %key, ptr %key.addr, align 8
  store ptr %rng, ptr %rng.addr, align 8
  store i32 0, ptr %err, align 4
  %0 = load ptr, ptr %key.addr, align 8
  %cmp = icmp eq ptr %0, null
  br i1 %cmp, label %if.then, label %if.else

if.then:                                          ; preds = %entry
  store i32 -173, ptr %err, align 4
  br label %if.end

if.else:                                          ; preds = %entry
  %1 = load ptr, ptr %rng.addr, align 8
  %2 = load ptr, ptr %key.addr, align 8
  %rng1 = getelementptr inbounds %struct.ecc_key, ptr %2, i32 0, i32 8
  store ptr %1, ptr %rng1, align 8
  br label %if.end

if.end:                                           ; preds = %if.else, %if.then
  %3 = load i32, ptr %err, align 4
  ret i32 %3
}