; Function Attrs: mustprogress nofree norecurse nosync nounwind willreturn memory(argmem: write) uwtable
define range(i32 -173, 1) i32 @wc_ecc_set_rng(ptr noundef writeonly %key, ptr noundef %rng) local_unnamed_addr #14 {
entry:
  %cmp = icmp eq ptr %key, null
  br i1 %cmp, label %if.end, label %if.else

if.else:                                          ; preds = %entry
  %rng1 = getelementptr inbounds nuw i8, ptr %key, i64 4192
  store ptr %rng, ptr %rng1, align 8
  br label %if.end

if.end:                                           ; preds = %entry, %if.else
  %err.0 = phi i32 [ 0, %if.else ], [ -173, %entry ]
  ret i32 %err.0
}